; Function Attrs: nounwind sspstrong uwtable
define internal i64 @time_s_alloc(i64 noundef %0) #1 {
  %2 = tail call i64 @rb_data_typed_object_zalloc(i64 noundef %0, i64 noundef 48, ptr noundef nonnull @time_data_type) #21
  %3 = inttoptr i64 %2 to ptr
  %4 = getelementptr inbounds nuw i8, ptr %3, i64 24
  %5 = load i64, ptr %4, align 8, !tbaa !20
  %6 = and i64 %5, 2
  %.not.i = icmp eq i64 %6, 0
  %7 = getelementptr i8, ptr %3, i64 32
  br i1 %.not.i, label %8, label %RTYPEDDATA_GET_DATA.exit

8:                                                ; preds = %1
  %9 = load ptr, ptr %7, align 8, !tbaa !24
  br label %RTYPEDDATA_GET_DATA.exit

RTYPEDDATA_GET_DATA.exit:                         ; preds = %1, %8
  %10 = phi ptr [ %9, %8 ], [ %7, %1 ]
  %11 = getelementptr inbounds nuw i8, ptr %10, i64 40
  %12 = load i64, ptr %11, align 8
  %13 = and i64 %12, -131941395333121
  %14 = or disjoint i64 %13, 26388279066624
  store i64 %14, ptr %11, align 8
  store i64 1, ptr %10, align 8, !tbaa !25
  %15 = getelementptr inbounds nuw i8, ptr %10, i64 32
  store i64 4, ptr %15, align 8, !tbaa !29
  ret i64 %2
}